target datalayout = "e-m:e-p270:32:32-p271:32:32-p272:64:64-i64:64-i128:128-f80:128-n8:16:32:64-S128"
target triple = "x86_64-pc-linux-gnu"

@.str.7 = private unnamed_addr constant [4 x i8] c"nan\00", align 1
@.str.8 = private unnamed_addr constant [5 x i8] c"-inf\00", align 1
@.str.9 = private unnamed_addr constant [4 x i8] c"inf\00", align 1
@.str.10 = private unnamed_addr constant [3 x i8] c"-0\00", align 1
@.str.11 = private unnamed_addr constant [2 x i8] c"0\00", align 1

; Function Attrs: nounwind uwtable
define dso_local i32 @ll2string(ptr noundef %0, i64 noundef %1, i64 noundef %2) #0 {
  %4 = alloca i32, align 4
  %5 = alloca ptr, align 8
  %6 = alloca i64, align 8
  %7 = alloca i64, align 8
  %8 = alloca i64, align 8
  %9 = alloca i32, align 4
  %10 = alloca i32, align 4
  %11 = alloca i32, align 4
  store ptr %0, ptr %5, align 8, !tbaa !5
  store i64 %1, ptr %6, align 8, !tbaa !29
  store i64 %2, ptr %7, align 8, !tbaa !31
  call void @llvm.lifetime.start.p0(i64 8, ptr %8) #13
  call void @llvm.lifetime.start.p0(i64 4, ptr %9) #13
  store i32 0, ptr %9, align 4, !tbaa !10
  %12 = load i64, ptr %7, align 8, !tbaa !31
  %13 = icmp slt i64 %12, 0
  br i1 %13, label %14, label %32

14:                                               ; preds = %3
  %15 = load i64, ptr %7, align 8, !tbaa !31
  %16 = icmp ne i64 %15, -9223372036854775808
  br i1 %16, label %17, label %20

17:                                               ; preds = %14
  %18 = load i64, ptr %7, align 8, !tbaa !31
  %19 = sub nsw i64 0, %18
  store i64 %19, ptr %8, align 8, !tbaa !31
  br label %21

20:                                               ; preds = %14
  store i64 -9223372036854775808, ptr %8, align 8, !tbaa !31
  br label %21

21:                                               ; preds = %20, %17
  %22 = load i64, ptr %6, align 8, !tbaa !29
  %23 = icmp ult i64 %22, 2
  br i1 %23, label %24, label %25

24:                                               ; preds = %21
  br label %46

25:                                               ; preds = %21
  store i32 1, ptr %9, align 4, !tbaa !10
  %26 = load ptr, ptr %5, align 8, !tbaa !5
  %27 = getelementptr inbounds i8, ptr %26, i64 0
  store i8 45, ptr %27, align 1, !tbaa !12
  %28 = load ptr, ptr %5, align 8, !tbaa !5
  %29 = getelementptr inbounds nuw i8, ptr %28, i32 1
  store ptr %29, ptr %5, align 8, !tbaa !5
  %30 = load i64, ptr %6, align 8, !tbaa !29
  %31 = add i64 %30, -1
  store i64 %31, ptr %6, align 8, !tbaa !29
  br label %34

32:                                               ; preds = %3
  %33 = load i64, ptr %7, align 8, !tbaa !31
  store i64 %33, ptr %8, align 8, !tbaa !31
  br label %34

34:                                               ; preds = %32, %25
  %35 = load ptr, ptr %5, align 8, !tbaa !5
  %36 = load i64, ptr %6, align 8, !tbaa !29
  %37 = load i64, ptr %8, align 8, !tbaa !31
  %38 = call i32 @ull2string(ptr noundef %35, i64 noundef %36, i64 noundef %37)
  store i32 %38, ptr %10, align 4, !tbaa !10
  %39 = load i32, ptr %10, align 4, !tbaa !10
  %40 = icmp eq i32 %39, 0
  br i1 %40, label %41, label %42

41:                                               ; preds = %34
  store i32 0, ptr %4, align 4
  store i32 1, ptr %11, align 4
  br label %53

42:                                               ; preds = %34
  %43 = load i32, ptr %10, align 4, !tbaa !10
  %44 = load i32, ptr %9, align 4, !tbaa !10
  %45 = add nsw i32 %43, %44
  store i32 %45, ptr %4, align 4
  store i32 1, ptr %11, align 4
  br label %53

46:                                               ; preds = %24
  %47 = load i64, ptr %6, align 8, !tbaa !29
  %48 = icmp ugt i64 %47, 0
  br i1 %48, label %49, label %52

49:                                               ; preds = %46
  %50 = load ptr, ptr %5, align 8, !tbaa !5
  %51 = getelementptr inbounds i8, ptr %50, i64 0
  store i8 0, ptr %51, align 1, !tbaa !12
  br label %52

52:                                               ; preds = %49, %46
  store i32 0, ptr %4, align 4
  store i32 1, ptr %11, align 4
  br label %53

53:                                               ; preds = %52, %42, %41
  call void @llvm.lifetime.end.p0(i64 4, ptr %9) #13
  call void @llvm.lifetime.end.p0(i64 8, ptr %8) #13
  %54 = load i32, ptr %4, align 4
  ret i32 %54
}

; Function Attrs: nounwind uwtable
define dso_local i32 @double2ll(double noundef %0, ptr noundef %1) #0 {
  %3 = alloca i32, align 4
  %4 = alloca double, align 8
  %5 = alloca ptr, align 8
  %6 = alloca i64, align 8
  %7 = alloca i32, align 4
  store double %0, ptr %4, align 8, !tbaa !50
  store ptr %1, ptr %5, align 8, !tbaa !38
  %8 = load double, ptr %4, align 8, !tbaa !50
  %9 = fcmp olt double %8, 0xC3D0000000000000
  br i1 %9, label %13, label %10

10:                                               ; preds = %2
  %11 = load double, ptr %4, align 8, !tbaa !50
  %12 = fcmp ogt double %11, 0x43D0000000000000
  br i1 %12, label %13, label %14

13:                                               ; preds = %10, %2
  store i32 0, ptr %3, align 4
  br label %26

14:                                               ; preds = %10
  call void @llvm.lifetime.start.p0(i64 8, ptr %6) #13
  %15 = load double, ptr %4, align 8, !tbaa !50
  %16 = fptosi double %15 to i64
  store i64 %16, ptr %6, align 8, !tbaa !31
  %17 = load i64, ptr %6, align 8, !tbaa !31
  %18 = sitofp i64 %17 to double
  %19 = load double, ptr %4, align 8, !tbaa !50
  %20 = fcmp oeq double %18, %19
  br i1 %20, label %21, label %24

21:                                               ; preds = %14
  %22 = load i64, ptr %6, align 8, !tbaa !31
  %23 = load ptr, ptr %5, align 8, !tbaa !38
  store i64 %22, ptr %23, align 8, !tbaa !31
  store i32 1, ptr %3, align 4
  store i32 1, ptr %7, align 4
  br label %25

24:                                               ; preds = %14
  store i32 0, ptr %3, align 4
  store i32 1, ptr %7, align 4
  br label %25

25:                                               ; preds = %24, %21
  call void @llvm.lifetime.end.p0(i64 8, ptr %6) #13
  br label %26

26:                                               ; preds = %25, %13
  %27 = load i32, ptr %3, align 4
  ret i32 %27
}

; Function Attrs: nounwind uwtable
define dso_local i32 @d2string(ptr noundef %0, i64 noundef %1, double noundef %2) #0 {
  %4 = alloca ptr, align 8
  %5 = alloca i64, align 8
  %6 = alloca double, align 8
  %7 = alloca i64, align 8
  store ptr %0, ptr %4, align 8, !tbaa !5
  store i64 %1, ptr %5, align 8, !tbaa !29
  store double %2, ptr %6, align 8, !tbaa !50
  %8 = load double, ptr %6, align 8, !tbaa !50
  %9 = call i1 @llvm.is.fpclass.f64(double %8, i32 3)
  br i1 %9, label %10, label %15

10:                                               ; preds = %3
  %11 = load ptr, ptr %4, align 8, !tbaa !5
  %12 = load i64, ptr %5, align 8, !tbaa !29
  %13 = call i32 (ptr, i64, ptr, ...) @snprintf(ptr noundef %11, i64 noundef %12, ptr noundef @.str.7) #13
  %14 = sext i32 %13 to i64
  store i64 %14, ptr %5, align 8, !tbaa !29
  br label %77

15:                                               ; preds = %3
  %16 = load double, ptr %6, align 8, !tbaa !50
  %17 = call double @llvm.fabs.f64(double %16) #16
  %18 = fcmp oeq double %17, 0x7FF0000000000000
  %19 = bitcast double %16 to i64
  %20 = icmp slt i64 %19, 0
  %21 = select i1 %20, i32 -1, i32 1
  %22 = select i1 %18, i32 %21, i32 0
  %23 = icmp ne i32 %22, 0
  br i1 %23, label %24, label %38

24:                                               ; preds = %15
  %25 = load double, ptr %6, align 8, !tbaa !50
  %26 = fcmp olt double %25, 0.000000e+00
  br i1 %26, label %27, label %32

27:                                               ; preds = %24
  %28 = load ptr, ptr %4, align 8, !tbaa !5
  %29 = load i64, ptr %5, align 8, !tbaa !29
  %30 = call i32 (ptr, i64, ptr, ...) @snprintf(ptr noundef %28, i64 noundef %29, ptr noundef @.str.8) #13
  %31 = sext i32 %30 to i64
  store i64 %31, ptr %5, align 8, !tbaa !29
  br label %37

32:                                               ; preds = %24
  %33 = load ptr, ptr %4, align 8, !tbaa !5
  %34 = load i64, ptr %5, align 8, !tbaa !29
  %35 = call i32 (ptr, i64, ptr, ...) @snprintf(ptr noundef %33, i64 noundef %34, ptr noundef @.str.9) #13
  %36 = sext i32 %35 to i64
  store i64 %36, ptr %5, align 8, !tbaa !29
  br label %37

37:                                               ; preds = %32, %27
  br label %76

38:                                               ; preds = %15
  %39 = load double, ptr %6, align 8, !tbaa !50
  %40 = fcmp oeq double %39, 0.000000e+00
  br i1 %40, label %41, label %56

41:                                               ; preds = %38
  %42 = load double, ptr %6, align 8, !tbaa !50
  %43 = fdiv double 1.000000e+00, %42
  %44 = fcmp olt double %43, 0.000000e+00
  br i1 %44, label %45, label %50

45:                                               ; preds = %41
  %46 = load ptr, ptr %4, align 8, !tbaa !5
  %47 = load i64, ptr %5, align 8, !tbaa !29
  %48 = call i32 (ptr, i64, ptr, ...) @snprintf(ptr noundef %46, i64 noundef %47, ptr noundef @.str.10) #13
  %49 = sext i32 %48 to i64
  store i64 %49, ptr %5, align 8, !tbaa !29
  br label %55

50:                                               ; preds = %41
  %51 = load ptr, ptr %4, align 8, !tbaa !5
  %52 = load i64, ptr %5, align 8, !tbaa !29
  %53 = call i32 (ptr, i64, ptr, ...) @snprintf(ptr noundef %51, i64 noundef %52, ptr noundef @.str.11) #13
  %54 = sext i32 %53 to i64
  store i64 %54, ptr %5, align 8, !tbaa !29
  br label %55

55:                                               ; preds = %50, %45
  br label %75

56:                                               ; preds = %38
  call void @llvm.lifetime.start.p0(i64 8, ptr %7) #13
  %57 = load double, ptr %6, align 8, !tbaa !50
  %58 = call i32 @double2ll(double noundef %57, ptr noundef %7)
  %59 = icmp ne i32 %58, 0
  br i1 %59, label %60, label %66

60:                                               ; preds = %56
  %61 = load ptr, ptr %4, align 8, !tbaa !5
  %62 = load i64, ptr %5, align 8, !tbaa !29
  %63 = load i64, ptr %7, align 8, !tbaa !31
  %64 = call i32 @ll2string(ptr noundef %61, i64 noundef %62, i64 noundef %63)
  %65 = sext i32 %64 to i64
  store i64 %65, ptr %5, align 8, !tbaa !29
  br label %74

66:                                               ; preds = %56
  %67 = load double, ptr %6, align 8, !tbaa !50
  %68 = load ptr, ptr %4, align 8, !tbaa !5
  %69 = call i32 @fpconv_dtoa(double noundef %67, ptr noundef %68)
  %70 = sext i32 %69 to i64
  store i64 %70, ptr %5, align 8, !tbaa !29
  %71 = load ptr, ptr %4, align 8, !tbaa !5
  %72 = load i64, ptr %5, align 8, !tbaa !29
  %73 = getelementptr inbounds nuw i8, ptr %71, i64 %72
  store i8 0, ptr %73, align 1, !tbaa !12
  br label %74

74:                                               ; preds = %66, %60
  call void @llvm.lifetime.end.p0(i64 8, ptr %7) #13
  br label %75

75:                                               ; preds = %74, %55
  br label %76

76:                                               ; preds = %75, %37
  br label %77

77:                                               ; preds = %76, %10
  %78 = load i64, ptr %5, align 8, !tbaa !29
  %79 = trunc i64 %78 to i32
  ret i32 %79
}