; Function Attrs: nounwind uwtable
define dso_local i32 @d2string(ptr noundef %0, i64 noundef %1, double noundef %2) local_unnamed_addr #4 {
  %4 = fcmp uno double %2, 0.000000e+00
  br i1 %4, label %5, label %7

5:                                                ; preds = %3
  %6 = tail call i32 (ptr, i64, ptr, ...) @snprintf(ptr noundef %0, i64 noundef %1, ptr noundef nonnull @.str.7) #29
  br label %ll2string.exit

7:                                                ; preds = %3
  %8 = tail call double @llvm.fabs.f64(double %2)
  %9 = fcmp oeq double %8, 0x7FF0000000000000
  br i1 %9, label %10, label %16

10:                                               ; preds = %7
  %11 = fcmp olt double %2, 0.000000e+00
  br i1 %11, label %12, label %14

12:                                               ; preds = %10
  %13 = tail call i32 (ptr, i64, ptr, ...) @snprintf(ptr noundef %0, i64 noundef %1, ptr noundef nonnull @.str.8) #29
  br label %ll2string.exit

14:                                               ; preds = %10
  %15 = tail call i32 (ptr, i64, ptr, ...) @snprintf(ptr noundef %0, i64 noundef %1, ptr noundef nonnull @.str.9) #29
  br label %ll2string.exit

16:                                               ; preds = %7
  %17 = fcmp oeq double %2, 0.000000e+00
  br i1 %17, label %18, label %25

18:                                               ; preds = %16
  %19 = fdiv double 1.000000e+00, %2
  %20 = fcmp olt double %19, 0.000000e+00
  br i1 %20, label %21, label %23

21:                                               ; preds = %18
  %22 = tail call i32 (ptr, i64, ptr, ...) @snprintf(ptr noundef %0, i64 noundef %1, ptr noundef nonnull @.str.10) #29
  br label %ll2string.exit

23:                                               ; preds = %18
  %24 = tail call i32 (ptr, i64, ptr, ...) @snprintf(ptr noundef %0, i64 noundef %1, ptr noundef nonnull @.str.11) #29
  br label %ll2string.exit

25:                                               ; preds = %16
  %or.cond.i = fcmp ogt double %8, 0x43D0000000000000
  br i1 %or.cond.i, label %45, label %26

26:                                               ; preds = %25
  %27 = fptosi double %2 to i64
  %28 = sitofp i64 %27 to double
  %29 = fcmp oeq double %2, %28
  br i1 %29, label %double2ll.exit, label %45

double2ll.exit:                                   ; preds = %26
  %30 = icmp slt i64 %27, 0
  br i1 %30, label %31, label %37

31:                                               ; preds = %double2ll.exit
  %32 = icmp ult i64 %1, 2
  br i1 %32, label %42, label %33

33:                                               ; preds = %31
  %34 = sub i64 0, %27
  store i8 45, ptr %0, align 1, !tbaa !9
  %35 = getelementptr inbounds nuw i8, ptr %0, i64 1
  %36 = add i64 %1, -1
  br label %37

37:                                               ; preds = %33, %double2ll.exit
  %.019.i = phi i64 [ %36, %33 ], [ %1, %double2ll.exit ]
  %.018.i = phi ptr [ %35, %33 ], [ %0, %double2ll.exit ]
  %.1.i = phi i64 [ %34, %33 ], [ %27, %double2ll.exit ]
  %.016.i = phi i32 [ 1, %33 ], [ 0, %double2ll.exit ]
  %38 = tail call i32 @ull2string(ptr noundef %.018.i, i64 noundef %.019.i, i64 noundef %.1.i)
  %39 = icmp eq i32 %38, 0
  br i1 %39, label %ll2string.exit, label %40

40:                                               ; preds = %37
  %41 = add nsw i32 %38, %.016.i
  br label %ll2string.exit

42:                                               ; preds = %31
  %43 = icmp eq i64 %1, 1
  br i1 %43, label %44, label %ll2string.exit

44:                                               ; preds = %42
  store i8 0, ptr %0, align 1, !tbaa !9
  br label %ll2string.exit

45:                                               ; preds = %25, %26
  %46 = tail call i32 @fpconv_dtoa(double noundef %2, ptr noundef %0) #29
  %47 = sext i32 %46 to i64
  %48 = getelementptr inbounds nuw i8, ptr %0, i64 %47
  store i8 0, ptr %48, align 1, !tbaa !9
  br label %ll2string.exit

ll2string.exit:                                   ; preds = %45, %37, %40, %42, %44, %14, %12, %21, %23, %5
  %.0 = phi i32 [ %6, %5 ], [ %13, %12 ], [ %15, %14 ], [ %22, %21 ], [ %24, %23 ], [ %46, %45 ], [ %41, %40 ], [ 0, %37 ], [ 0, %44 ], [ 0, %42 ]
  ret i32 %.0
}